; Function Attrs: inlinehint mustprogress optsize uwtable
define internal noundef ptr @"_ZZN8nanobind6detail11func_createILb1ELb1EZL30nanobind_init_test_holders_extRNS_7module_EE3$_0iJR13SharedWrapperEJLm0EEJNS_9is_methodENS_9is_getterENS_9rv_policyEEEEP7_objectOT1_PFT2_DpT3_ESt16integer_sequenceImJXspT4_EEEDpRKT5_ENUlPvPSB_PhS9_PNS0_12cleanup_listEE_8__invokeESP_SQ_SR_S9_ST_"(ptr readnone captures(none) %0, ptr noundef readonly captures(none) %1, ptr noundef readonly captures(none) %2, i32 %3, ptr noundef %4) #8 align 2 personality ptr @__gxx_personality_v0 {
  %6 = alloca %"struct.nanobind::detail::tuple.169", align 8
  call void @llvm.lifetime.start.p0(i64 8, ptr nonnull %6) #26
  %7 = load ptr, ptr %1, align 8, !tbaa !115
  %8 = load i8, ptr %2, align 1, !tbaa !37
  %9 = call noundef zeroext i1 @_ZN8nanobind6detail11nb_type_getEPKSt9type_infoP7_objecthPNS0_12cleanup_listEPPv(ptr noundef nonnull @_ZTI13SharedWrapper, ptr noundef %7, i8 noundef zeroext %8, ptr noundef %4, ptr noundef nonnull align 8 dereferenceable(8) %6) #27
  br i1 %9, label %10, label %"_ZZN8nanobind6detail11func_createILb1ELb1EZL30nanobind_init_test_holders_extRNS_7module_EE3$_0iJR13SharedWrapperEJLm0EEJNS_9is_methodENS_9is_getterENS_9rv_policyEEEEP7_objectOT1_PFT2_DpT3_ESt16integer_sequenceImJXspT4_EEEDpRKT5_ENKUlPvPSB_PhS9_PNS0_12cleanup_listEE_clESP_SQ_SR_S9_ST_.exit"

10:                                               ; preds = %5
  %11 = load ptr, ptr %6, align 8, !tbaa !165
  call void @_ZN8nanobind6detail27raise_next_overload_if_nullEPv(ptr noundef %11) #25
  %12 = load ptr, ptr %6, align 8, !tbaa !165
  %.val = load ptr, ptr %12, align 8, !tbaa !152
  %.val.val = load i32, ptr %.val, align 4, !tbaa !118
  %13 = sext i32 %.val.val to i64
  %14 = invoke ptr @PyLong_FromLong(i64 noundef %13) #25
          to label %"_ZZN8nanobind6detail11func_createILb1ELb1EZL30nanobind_init_test_holders_extRNS_7module_EE3$_0iJR13SharedWrapperEJLm0EEJNS_9is_methodENS_9is_getterENS_9rv_policyEEEEP7_objectOT1_PFT2_DpT3_ESt16integer_sequenceImJXspT4_EEEDpRKT5_ENKUlPvPSB_PhS9_PNS0_12cleanup_listEE_clESP_SQ_SR_S9_ST_.exit" unwind label %15

15:                                               ; preds = %10
  %16 = landingpad { ptr, i32 }
          catch ptr null
  %17 = extractvalue { ptr, i32 } %16, 0
  call void @__clang_call_terminate(ptr %17) #28
  unreachable

"_ZZN8nanobind6detail11func_createILb1ELb1EZL30nanobind_init_test_holders_extRNS_7module_EE3$_0iJR13SharedWrapperEJLm0EEJNS_9is_methodENS_9is_getterENS_9rv_policyEEEEP7_objectOT1_PFT2_DpT3_ESt16integer_sequenceImJXspT4_EEEDpRKT5_ENKUlPvPSB_PhS9_PNS0_12cleanup_listEE_clESP_SQ_SR_S9_ST_.exit": ; preds = %10, %5
  %.0.i = phi ptr [ inttoptr (i64 1 to ptr), %5 ], [ %14, %10 ]
  call void @llvm.lifetime.end.p0(i64 8, ptr nonnull %6) #26
  ret ptr %.0.i
}